target datalayout = "e-m:e-p270:32:32-p271:32:32-p272:64:64-i64:64-i128:128-f80:128-n8:16:32:64-S128"
target triple = "x86_64-pc-linux-gnu"

%"class.nix::CanonPath" = type { %"class.std::__cxx11::basic_string" }
%"class.std::__cxx11::basic_string" = type { %"struct.std::__cxx11::basic_string<char>::_Alloc_hider", i64, %union.anon }
%"struct.std::__cxx11::basic_string<char>::_Alloc_hider" = type { ptr }
%union.anon = type { i64, [8 x i8] }
%"struct.nix::FilteringInputAccessor" = type { %"struct.nix::InputAccessor.base", %"class.nix::ref", %"class.nix::CanonPath", %"class.std::function", %"struct.nix::SourceAccessor" }
%"struct.nix::InputAccessor.base" = type { ptr, %"class.std::enable_shared_from_this", %"class.std::optional" }
%"class.std::enable_shared_from_this" = type { %"class.std::weak_ptr" }
%"class.std::weak_ptr" = type { %"class.std::__weak_ptr" }
%"class.std::__weak_ptr" = type { ptr, %"class.std::__weak_count" }
%"class.std::__weak_count" = type { ptr }
%"class.std::optional" = type { %"struct.std::_Optional_base" }
%"struct.std::_Optional_base" = type { %"struct.std::_Optional_payload" }
%"struct.std::_Optional_payload" = type { %"struct.std::_Optional_payload.base", [7 x i8] }
%"struct.std::_Optional_payload.base" = type { %"struct.std::_Optional_payload_base.base" }
%"struct.std::_Optional_payload_base.base" = type <{ %"union.std::_Optional_payload_base<std::__cxx11::basic_string<char>>::_Storage", i8 }>
%"union.std::_Optional_payload_base<std::__cxx11::basic_string<char>>::_Storage" = type { %"class.std::__cxx11::basic_string" }
%"class.nix::ref" = type { %"class.std::shared_ptr" }
%"class.std::shared_ptr" = type { %"class.std::__shared_ptr" }
%"class.std::__shared_ptr" = type { ptr, %"class.std::__shared_count" }
%"class.std::__shared_count" = type { ptr }
%"class.std::function" = type { %"class.std::_Function_base", ptr }
%"class.std::_Function_base" = type { %"union.std::_Any_data", ptr }
%"union.std::_Any_data" = type { %"union.std::_Nocopy_types" }
%"union.std::_Nocopy_types" = type { { i64, i64 } }
%"struct.nix::SourceAccessor" = type { ptr, i64, %"class.std::__cxx11::basic_string", %"class.std::__cxx11::basic_string" }

; Function Attrs: mustprogress nounwind uwtable
define linkonce_odr noundef ptr @_ZNKSt12__shared_ptrIN3nix13InputAccessorELN9__gnu_cxx12_Lock_policyE2EE3getEv(ptr noundef nonnull align 8 dereferenceable(16) %0) #4 comdat align 2 {
  %2 = alloca ptr, align 8
  store ptr %0, ptr %2, align 8
  %3 = load ptr, ptr %2, align 8
  %4 = getelementptr inbounds %"class.std::__shared_ptr", ptr %3, i32 0, i32 0
  %5 = load ptr, ptr %4, align 8
  ret ptr %5
}

; Function Attrs: mustprogress nounwind uwtable
define linkonce_odr noundef ptr @_ZNKSt19__shared_ptr_accessIN3nix13InputAccessorELN9__gnu_cxx12_Lock_policyE2ELb0ELb0EE6_M_getEv(ptr noundef nonnull align 1 dereferenceable(1) %0) #4 comdat align 2 {
  %2 = alloca ptr, align 8
  store ptr %0, ptr %2, align 8
  %3 = load ptr, ptr %2, align 8
  %4 = call noundef ptr @_ZNKSt12__shared_ptrIN3nix13InputAccessorELN9__gnu_cxx12_Lock_policyE2EE3getEv(ptr noundef nonnull align 8 dereferenceable(16) %3) #3
  ret ptr %4
}

; Function Attrs: mustprogress nounwind uwtable
define linkonce_odr noundef nonnull align 8 dereferenceable(64) ptr @_ZNKSt19__shared_ptr_accessIN3nix13InputAccessorELN9__gnu_cxx12_Lock_policyE2ELb0ELb0EEdeEv(ptr noundef nonnull align 1 dereferenceable(1) %0) #4 comdat align 2 {
  %2 = alloca ptr, align 8
  store ptr %0, ptr %2, align 8
  %3 = load ptr, ptr %2, align 8
  br label %4

4:                                                ; preds = %1
  br label %5

5:                                                ; preds = %4
  br label %6

6:                                                ; preds = %5
  %7 = call noundef ptr @_ZNKSt19__shared_ptr_accessIN3nix13InputAccessorELN9__gnu_cxx12_Lock_policyE2ELb0ELb0EE6_M_getEv(ptr noundef nonnull align 1 dereferenceable(1) %3) #3
  ret ptr %7
}

; Function Attrs: mustprogress nounwind uwtable
define linkonce_odr noundef ptr @_ZNK3nix3refINS_13InputAccessorEEptEv(ptr noundef nonnull align 8 dereferenceable(16) %0) #4 comdat align 2 {
  %2 = alloca ptr, align 8
  store ptr %0, ptr %2, align 8
  %3 = load ptr, ptr %2, align 8
  %4 = getelementptr inbounds %"class.nix::ref", ptr %3, i32 0, i32 0
  %5 = call noundef nonnull align 8 dereferenceable(64) ptr @_ZNKSt19__shared_ptr_accessIN3nix13InputAccessorELN9__gnu_cxx12_Lock_policyE2ELb0ELb0EEdeEv(ptr noundef nonnull align 1 dereferenceable(1) %4) #3
  ret ptr %5
}

; Function Attrs: mustprogress uwtable
define noundef zeroext i1 @_ZN3nix22FilteringInputAccessor10pathExistsERKNS_9CanonPathE(ptr noundef nonnull align 8 dereferenceable(144) %0, ptr noundef nonnull align 8 dereferenceable(32) %1) unnamed_addr #5 align 2 personality ptr @__gxx_personality_v0 {
  %3 = alloca i1, align 1
  %4 = alloca ptr, align 8
  %5 = alloca ptr, align 8
  %6 = alloca %"class.nix::CanonPath", align 8
  %7 = alloca i1, align 1
  %8 = alloca ptr, align 8
  %9 = alloca i32, align 4
  store ptr %0, ptr %4, align 8
  store ptr %1, ptr %5, align 8
  %10 = load ptr, ptr %4, align 8
  %11 = load ptr, ptr %5, align 8
  %12 = load ptr, ptr %10, align 8
  %13 = getelementptr inbounds ptr, ptr %12, i64 9
  %14 = load ptr, ptr %13, align 8
  %15 = call noundef zeroext i1 %14(ptr noundef nonnull align 8 dereferenceable(144) %10, ptr noundef nonnull align 8 dereferenceable(32) %11)
  store i1 false, ptr %7, align 1
  br i1 %15, label %16, label %30

16:                                               ; preds = %2
  %17 = getelementptr inbounds %"struct.nix::FilteringInputAccessor", ptr %10, i32 0, i32 1
  %18 = call noundef ptr @_ZNK3nix3refINS_13InputAccessorEEptEv(ptr noundef nonnull align 8 dereferenceable(16) %17)
  %19 = load ptr, ptr %18, align 8
  %20 = getelementptr i8, ptr %19, i64 -24
  %21 = load i64, ptr %20, align 8
  %22 = getelementptr inbounds i8, ptr %18, i64 %21
  %23 = getelementptr inbounds %"struct.nix::FilteringInputAccessor", ptr %10, i32 0, i32 2
  %24 = load ptr, ptr %5, align 8
  call void @_ZNK3nix9CanonPathdvERKS0_(ptr dead_on_unwind writable sret(%"class.nix::CanonPath") align 8 %6, ptr noundef nonnull align 8 dereferenceable(32) %23, ptr noundef nonnull align 8 dereferenceable(32) %24)
  store i1 true, ptr %7, align 1
  %25 = load ptr, ptr %22, align 8
  %26 = getelementptr inbounds ptr, ptr %25, i64 4
  %27 = load ptr, ptr %26, align 8
  %28 = invoke noundef zeroext i1 %27(ptr noundef nonnull align 8 dereferenceable(80) %22, ptr noundef nonnull align 8 dereferenceable(32) %6)
          to label %29 unwind label %36

29:                                               ; preds = %16
  br label %30

30:                                               ; preds = %29, %2
  %31 = phi i1 [ false, %2 ], [ %28, %29 ]
  store i1 %31, ptr %3, align 1
  %32 = load i1, ptr %7, align 1
  br i1 %32, label %33, label %34

33:                                               ; preds = %30
  call void @_ZN3nix9CanonPathD2Ev(ptr noundef nonnull align 8 dereferenceable(32) %6) #3
  br label %34

34:                                               ; preds = %33, %30
  %35 = load i1, ptr %3, align 1
  ret i1 %35

36:                                               ; preds = %16
  %37 = landingpad { ptr, i32 }
          cleanup
  %38 = extractvalue { ptr, i32 } %37, 0
  store ptr %38, ptr %8, align 8
  %39 = extractvalue { ptr, i32 } %37, 1
  store i32 %39, ptr %9, align 4
  %40 = load i1, ptr %7, align 1
  br i1 %40, label %41, label %42

41:                                               ; preds = %36
  call void @_ZN3nix9CanonPathD2Ev(ptr noundef nonnull align 8 dereferenceable(32) %6) #3
  br label %42

42:                                               ; preds = %41, %36
  br label %43

43:                                               ; preds = %42
  %44 = load ptr, ptr %8, align 8
  %45 = load i32, ptr %9, align 4
  %46 = insertvalue { ptr, i32 } poison, ptr %44, 0
  %47 = insertvalue { ptr, i32 } %46, i32 %45, 1
  resume { ptr, i32 } %47
}